target datalayout = "e-m:e-p270:32:32-p271:32:32-p272:64:64-i64:64-i128:128-f80:128-n8:16:32:64-S128"
target triple = "x86_64-pc-linux-gnu"

%struct._object = type { %union.anon, ptr }
%union.anon = type { i64 }
%struct.anon = type { i32, i32 }
%struct.gaobject = type { %struct._object, ptr, ptr, ptr, ptr, i8, ptr }

; Function Attrs: alwaysinline nounwind uwtable
define internal i32 @_Py_IsImmortal(ptr noundef %0) #4 {
  %2 = alloca ptr, align 8
  store ptr %0, ptr %2, align 8, !tbaa !4
  %3 = load ptr, ptr %2, align 8, !tbaa !4
  %4 = getelementptr inbounds nuw %struct._object, ptr %3, i32 0, i32 0
  %5 = getelementptr inbounds nuw %struct.anon, ptr %4, i32 0, i32 0
  %6 = load i32, ptr %5, align 8, !tbaa !17
  %7 = icmp slt i32 %6, 0
  %8 = zext i1 %7 to i32
  ret i32 %8
}

; Function Attrs: alwaysinline nounwind uwtable
define internal void @Py_DECREF(ptr noundef %0) #4 {
  %2 = alloca ptr, align 8
  store ptr %0, ptr %2, align 8, !tbaa !4
  %3 = load ptr, ptr %2, align 8, !tbaa !4
  %4 = call i32 @_Py_IsImmortal(ptr noundef %3)
  %5 = icmp ne i32 %4, 0
  br i1 %5, label %6, label %7

6:                                                ; preds = %1
  br label %16

7:                                                ; preds = %1
  %8 = load ptr, ptr %2, align 8, !tbaa !4
  %9 = getelementptr inbounds nuw %struct._object, ptr %8, i32 0, i32 0
  %10 = getelementptr inbounds nuw %struct.anon, ptr %9, i32 0, i32 0
  %11 = load i32, ptr %10, align 8, !tbaa !17
  %12 = add i32 %11, -1
  store i32 %12, ptr %10, align 8, !tbaa !17
  %13 = icmp eq i32 %12, 0
  br i1 %13, label %14, label %16

14:                                               ; preds = %7
  %15 = load ptr, ptr %2, align 8, !tbaa !4
  call void @_Py_Dealloc(ptr noundef %15)
  br label %16

16:                                               ; preds = %6, %14, %7
  ret void
}

; Function Attrs: nounwind uwtable
define internal ptr @ga_getitem(ptr noundef %0, ptr noundef %1) #0 {
  %3 = alloca ptr, align 8
  %4 = alloca ptr, align 8
  %5 = alloca ptr, align 8
  %6 = alloca ptr, align 8
  %7 = alloca i32, align 4
  %8 = alloca ptr, align 8
  %9 = alloca ptr, align 8
  store ptr %0, ptr %4, align 8, !tbaa !4
  store ptr %1, ptr %5, align 8, !tbaa !4
  call void @llvm.lifetime.start.p0(i64 8, ptr %6) #5
  %10 = load ptr, ptr %4, align 8, !tbaa !4
  store ptr %10, ptr %6, align 8, !tbaa !16
  %11 = load ptr, ptr %6, align 8, !tbaa !16
  %12 = getelementptr inbounds nuw %struct.gaobject, ptr %11, i32 0, i32 3
  %13 = load ptr, ptr %12, align 8, !tbaa !47
  %14 = icmp eq ptr %13, null
  br i1 %14, label %15, label %28

15:                                               ; preds = %2
  %16 = load ptr, ptr %6, align 8, !tbaa !16
  %17 = getelementptr inbounds nuw %struct.gaobject, ptr %16, i32 0, i32 2
  %18 = load ptr, ptr %17, align 8, !tbaa !44
  %19 = call ptr @_Py_make_parameters(ptr noundef %18)
  %20 = load ptr, ptr %6, align 8, !tbaa !16
  %21 = getelementptr inbounds nuw %struct.gaobject, ptr %20, i32 0, i32 3
  store ptr %19, ptr %21, align 8, !tbaa !47
  %22 = load ptr, ptr %6, align 8, !tbaa !16
  %23 = getelementptr inbounds nuw %struct.gaobject, ptr %22, i32 0, i32 3
  %24 = load ptr, ptr %23, align 8, !tbaa !47
  %25 = icmp eq ptr %24, null
  br i1 %25, label %26, label %27

26:                                               ; preds = %15
  store ptr null, ptr %3, align 8
  store i32 1, ptr %7, align 4
  br label %63

27:                                               ; preds = %15
  br label %28

28:                                               ; preds = %27, %2
  call void @llvm.lifetime.start.p0(i64 8, ptr %8) #5
  %29 = load ptr, ptr %4, align 8, !tbaa !4
  %30 = load ptr, ptr %6, align 8, !tbaa !16
  %31 = getelementptr inbounds nuw %struct.gaobject, ptr %30, i32 0, i32 2
  %32 = load ptr, ptr %31, align 8, !tbaa !44
  %33 = load ptr, ptr %6, align 8, !tbaa !16
  %34 = getelementptr inbounds nuw %struct.gaobject, ptr %33, i32 0, i32 3
  %35 = load ptr, ptr %34, align 8, !tbaa !47
  %36 = load ptr, ptr %5, align 8, !tbaa !4
  %37 = call ptr @_Py_subs_parameters(ptr noundef %29, ptr noundef %32, ptr noundef %35, ptr noundef %36)
  store ptr %37, ptr %8, align 8, !tbaa !4
  %38 = load ptr, ptr %8, align 8, !tbaa !4
  %39 = icmp eq ptr %38, null
  br i1 %39, label %40, label %41

40:                                               ; preds = %28
  store ptr null, ptr %3, align 8
  store i32 1, ptr %7, align 4
  br label %62

41:                                               ; preds = %28
  call void @llvm.lifetime.start.p0(i64 8, ptr %9) #5
  %42 = load ptr, ptr %6, align 8, !tbaa !16
  %43 = getelementptr inbounds nuw %struct.gaobject, ptr %42, i32 0, i32 1
  %44 = load ptr, ptr %43, align 8, !tbaa !41
  %45 = load ptr, ptr %8, align 8, !tbaa !4
  %46 = call ptr @Py_GenericAlias(ptr noundef %44, ptr noundef %45)
  store ptr %46, ptr %9, align 8, !tbaa !4
  %47 = load ptr, ptr %9, align 8, !tbaa !4
  %48 = icmp eq ptr %47, null
  br i1 %48, label %49, label %51

49:                                               ; preds = %41
  %50 = load ptr, ptr %8, align 8, !tbaa !4
  call void @Py_DECREF(ptr noundef %50)
  store ptr null, ptr %3, align 8
  store i32 1, ptr %7, align 4
  br label %61

51:                                               ; preds = %41
  %52 = load ptr, ptr %6, align 8, !tbaa !16
  %53 = getelementptr inbounds nuw %struct.gaobject, ptr %52, i32 0, i32 5
  %54 = load i8, ptr %53, align 8, !tbaa !45, !range !51, !noundef !52
  %55 = trunc i8 %54 to i1
  %56 = load ptr, ptr %9, align 8, !tbaa !4
  %57 = getelementptr inbounds nuw %struct.gaobject, ptr %56, i32 0, i32 5
  %58 = zext i1 %55 to i8
  store i8 %58, ptr %57, align 8, !tbaa !45
  %59 = load ptr, ptr %8, align 8, !tbaa !4
  call void @Py_DECREF(ptr noundef %59)
  %60 = load ptr, ptr %9, align 8, !tbaa !4
  store ptr %60, ptr %3, align 8
  store i32 1, ptr %7, align 4
  br label %61

61:                                               ; preds = %51, %49
  call void @llvm.lifetime.end.p0(i64 8, ptr %9) #5
  br label %62

62:                                               ; preds = %61, %40
  call void @llvm.lifetime.end.p0(i64 8, ptr %8) #5
  br label %63

63:                                               ; preds = %62, %26
  call void @llvm.lifetime.end.p0(i64 8, ptr %6) #5
  %64 = load ptr, ptr %3, align 8
  ret ptr %64
}