; Function Attrs: nounwind uwtable
define internal ptr @ga_getitem(ptr noundef %0, ptr noundef %1) #0 {
  %3 = getelementptr inbounds nuw i8, ptr %0, i64 32
  %4 = load ptr, ptr %3, align 8, !tbaa !47
  %5 = icmp eq ptr %4, null
  br i1 %5, label %6, label %11

6:                                                ; preds = %2
  %7 = getelementptr inbounds nuw i8, ptr %0, i64 24
  %8 = load ptr, ptr %7, align 8, !tbaa !34
  %9 = tail call ptr @_Py_make_parameters(ptr noundef %8)
  store ptr %9, ptr %3, align 8, !tbaa !47
  %10 = icmp eq ptr %9, null
  br i1 %10, label %Py_DECREF.exit22, label %11

11:                                               ; preds = %6, %2
  %12 = phi ptr [ %9, %6 ], [ %4, %2 ]
  %13 = getelementptr inbounds nuw i8, ptr %0, i64 24
  %14 = load ptr, ptr %13, align 8, !tbaa !34
  %15 = tail call ptr @_Py_subs_parameters(ptr noundef nonnull %0, ptr noundef %14, ptr noundef nonnull %12, ptr noundef %1)
  %16 = icmp eq ptr %15, null
  br i1 %16, label %Py_DECREF.exit22, label %17

17:                                               ; preds = %11
  %18 = getelementptr inbounds nuw i8, ptr %0, i64 16
  %19 = load ptr, ptr %18, align 8, !tbaa !33
  %20 = tail call ptr @Py_GenericAlias(ptr noundef %19, ptr noundef nonnull %15)
  %21 = icmp eq ptr %20, null
  br i1 %21, label %22, label %27

22:                                               ; preds = %17
  %23 = load i32, ptr %15, align 8, !tbaa !23
  %.not.i21 = icmp sgt i32 %23, -1
  br i1 %.not.i21, label %24, label %Py_DECREF.exit22

24:                                               ; preds = %22
  %25 = add nsw i32 %23, -1
  store i32 %25, ptr %15, align 8, !tbaa !23
  %26 = icmp eq i32 %25, 0
  br i1 %26, label %Py_DECREF.exit22.sink.split, label %Py_DECREF.exit22

27:                                               ; preds = %17
  %28 = getelementptr inbounds nuw i8, ptr %0, i64 48
  %29 = load i8, ptr %28, align 8, !tbaa !28, !range !31, !noundef !32
  %30 = getelementptr inbounds nuw i8, ptr %20, i64 48
  store i8 %29, ptr %30, align 8, !tbaa !28
  %31 = load i32, ptr %15, align 8, !tbaa !23
  %.not.i = icmp sgt i32 %31, -1
  br i1 %.not.i, label %32, label %Py_DECREF.exit22

32:                                               ; preds = %27
  %33 = add nsw i32 %31, -1
  store i32 %33, ptr %15, align 8, !tbaa !23
  %34 = icmp eq i32 %33, 0
  br i1 %34, label %Py_DECREF.exit22.sink.split, label %Py_DECREF.exit22

Py_DECREF.exit22.sink.split:                      ; preds = %32, %24
  %.0.ph = phi ptr [ null, %24 ], [ %20, %32 ]
  tail call void @_Py_Dealloc(ptr noundef nonnull %15) #5
  br label %Py_DECREF.exit22

Py_DECREF.exit22:                                 ; preds = %Py_DECREF.exit22.sink.split, %32, %27, %24, %22, %11, %6
  %.0 = phi ptr [ null, %6 ], [ null, %11 ], [ null, %22 ], [ null, %24 ], [ %20, %27 ], [ %20, %32 ], [ %.0.ph, %Py_DECREF.exit22.sink.split ]
  ret ptr %.0
}